target datalayout = "e-m:e-p270:32:32-p271:32:32-p272:64:64-i64:64-i128:128-f80:128-n8:16:32:64-S128"
target triple = "x86_64-unknown-linux-gnu"

%"class.absl::lts_20230802::log_internal::NullStream" = type { i8 }
%"class.google::protobuf::Reflection" = type { ptr, %"struct.google::protobuf::internal::ReflectionSchema", ptr, ptr, i32, %"class.absl::lts_20230802::once_flag", ptr }
%"struct.google::protobuf::internal::ReflectionSchema" = type { ptr, ptr, ptr, i32, i32, i32, i32, i32, i32, ptr, i32, i32, i32 }
%"class.absl::lts_20230802::once_flag" = type { %"struct.std::atomic.1" }
%"struct.std::atomic.1" = type { %"struct.std::__atomic_base.2" }
%"struct.std::__atomic_base.2" = type { i32 }
%"class.google::protobuf::MessageLite" = type { ptr, %"class.google::protobuf::internal::InternalMetadata" }
%"class.google::protobuf::internal::InternalMetadata" = type { i64 }
%"struct.google::protobuf::internal::ArenaAlign" = type { i64 }

; Function Attrs: mustprogress nounwind uwtable
define linkonce_odr hidden noundef ptr @_ZNK6google8protobuf8internal10ArenaAlign4CeilIvEEPT_S5_(ptr noundef nonnull align 8 dereferenceable(8) %this, ptr noundef %ptr) #4 comdat align 2 {
entry:
  %this.addr = alloca ptr, align 8
  %ptr.addr = alloca ptr, align 8
  %intptr = alloca i64, align 8
  store ptr %this, ptr %this.addr, align 8
  store ptr %ptr, ptr %ptr.addr, align 8
  %this1 = load ptr, ptr %this.addr, align 8
  %0 = load ptr, ptr %ptr.addr, align 8
  %1 = ptrtoint ptr %0 to i64
  store i64 %1, ptr %intptr, align 8
  %2 = load i64, ptr %intptr, align 8
  %align = getelementptr inbounds %"struct.google::protobuf::internal::ArenaAlign", ptr %this1, i32 0, i32 0
  %3 = load i64, ptr %align, align 8
  %add = add i64 %2, %3
  %sub = sub i64 %add, 1
  %align2 = getelementptr inbounds %"struct.google::protobuf::internal::ArenaAlign", ptr %this1, i32 0, i32 0
  %4 = load i64, ptr %align2, align 8
  %sub3 = sub i64 %4, 1
  %not = xor i64 %sub3, -1
  %and = and i64 %sub, %not
  %5 = inttoptr i64 %and to ptr
  ret ptr %5
}

; Function Attrs: mustprogress nounwind uwtable
define linkonce_odr hidden noundef i64 @_ZNK6google8protobuf8internal10ArenaAlign6PaddedEm(ptr noundef nonnull align 8 dereferenceable(8) %this, i64 noundef %n) #4 comdat align 2 {
entry:
  %this.addr = alloca ptr, align 8
  %n.addr = alloca i64, align 8
  store ptr %this, ptr %this.addr, align 8
  store i64 %n, ptr %n.addr, align 8
  %this1 = load ptr, ptr %this.addr, align 8
  %0 = load i64, ptr %n.addr, align 8
  %align = getelementptr inbounds %"struct.google::protobuf::internal::ArenaAlign", ptr %this1, i32 0, i32 0
  %1 = load i64, ptr %align, align 8
  %add = add i64 %0, %1
  %sub = sub i64 %add, 8
  ret i64 %sub
}

; Function Attrs: mustprogress nounwind uwtable
define linkonce_odr hidden i64 @_ZN6google8protobuf8internal12ArenaAlignAsEm(i64 noundef %align) #4 comdat {
entry:
  %retval = alloca %"struct.google::protobuf::internal::ArenaAlign", align 8
  %align.addr = alloca i64, align 8
  %ref.tmp = alloca %"class.absl::lts_20230802::log_internal::NullStream", align 1
  store i64 %align, ptr %align.addr, align 8
  br label %while.cond

while.cond:                                       ; preds = %while.body, %entry
  br i1 false, label %while.body, label %while.end

while.body:                                       ; preds = %while.cond
  %call = call noundef nonnull align 1 dereferenceable(1) ptr @_ZN4absl12lts_2023080212log_internal10NullStream14InternalStreamEv(ptr noundef nonnull align 1 dereferenceable(1) %ref.tmp)
  br label %while.cond, !llvm.loop !66

while.end:                                        ; preds = %while.cond
  %align1 = getelementptr inbounds %"struct.google::protobuf::internal::ArenaAlign", ptr %retval, i32 0, i32 0
  %0 = load i64, ptr %align.addr, align 8
  store i64 %0, ptr %align1, align 8
  %coerce.dive = getelementptr inbounds %"struct.google::protobuf::internal::ArenaAlign", ptr %retval, i32 0, i32 0
  %1 = load i64, ptr %coerce.dive, align 8
  ret i64 %1
}

; Function Attrs: mustprogress nounwind uwtable
define linkonce_odr hidden noundef ptr @_ZNK6google8protobuf8internal16InternalMetadata8PtrValueINS0_5ArenaEEEPT_v(ptr noundef nonnull align 8 dereferenceable(8) %this) #4 comdat align 2 {
entry:
  %this.addr = alloca ptr, align 8
  store ptr %this, ptr %this.addr, align 8
  %this1 = load ptr, ptr %this.addr, align 8
  %ptr_ = getelementptr inbounds %"class.google::protobuf::internal::InternalMetadata", ptr %this1, i32 0, i32 0
  %0 = load i64, ptr %ptr_, align 8
  %and = and i64 %0, -2
  %1 = inttoptr i64 %and to ptr
  ret ptr %1
}

; Function Attrs: mustprogress nounwind uwtable
define linkonce_odr hidden noundef ptr @_ZNK6google8protobuf8internal16InternalMetadata8PtrValueINS2_13ContainerBaseEEEPT_v(ptr noundef nonnull align 8 dereferenceable(8) %this) #4 comdat align 2 {
entry:
  %this.addr = alloca ptr, align 8
  store ptr %this, ptr %this.addr, align 8
  %this1 = load ptr, ptr %this.addr, align 8
  %ptr_ = getelementptr inbounds %"class.google::protobuf::internal::InternalMetadata", ptr %this1, i32 0, i32 0
  %0 = load i64, ptr %ptr_, align 8
  %and = and i64 %0, -2
  %1 = inttoptr i64 %and to ptr
  ret ptr %1
}

; Function Attrs: mustprogress nounwind uwtable
define linkonce_odr hidden noundef ptr @_ZN6google8protobuf8internal23GetConstPointerAtOffsetIPvEEPKT_PKvj(ptr noundef %message, i32 noundef %offset) #4 comdat {
entry:
  %message.addr = alloca ptr, align 8
  %offset.addr = alloca i32, align 4
  store ptr %message, ptr %message.addr, align 8
  store i32 %offset, ptr %offset.addr, align 4
  %0 = load ptr, ptr %message.addr, align 8
  %1 = load i32, ptr %offset.addr, align 4
  %idx.ext = zext i32 %1 to i64
  %add.ptr = getelementptr inbounds i8, ptr %0, i64 %idx.ext
  ret ptr %add.ptr
}

; Function Attrs: mustprogress nounwind uwtable
define linkonce_odr hidden noundef ptr @_ZN6google8protobuf8internal18GetPointerAtOffsetIPvEEPT_S3_j(ptr noundef %message, i32 noundef %offset) #4 comdat {
entry:
  %message.addr = alloca ptr, align 8
  %offset.addr = alloca i32, align 4
  store ptr %message, ptr %message.addr, align 8
  store i32 %offset, ptr %offset.addr, align 4
  %0 = load ptr, ptr %message.addr, align 8
  %1 = load i32, ptr %offset.addr, align 4
  %idx.ext = zext i32 %1 to i64
  %add.ptr = getelementptr inbounds i8, ptr %0, i64 %idx.ext
  ret ptr %add.ptr
}

; Function Attrs: mustprogress nounwind uwtable
define linkonce_odr hidden noundef i32 @_ZNK6google8protobuf8internal16ReflectionSchema11SplitOffsetEv(ptr noundef nonnull align 8 dereferenceable(72) %this) #4 comdat align 2 {
entry:
  %this.addr = alloca ptr, align 8
  store ptr %this, ptr %this.addr, align 8
  %this1 = load ptr, ptr %this.addr, align 8
  %split_offset_ = getelementptr inbounds %"struct.google::protobuf::internal::ReflectionSchema", ptr %this1, i32 0, i32 11
  %0 = load i32, ptr %split_offset_, align 4
  ret i32 %0
}

; Function Attrs: mustprogress uwtable
define linkonce_odr hidden noundef ptr @_ZN6google8protobuf5Arena15AllocateAlignedEmm(ptr noundef nonnull align 8 dereferenceable(144) %this, i64 noundef %size, i64 noundef %align) #5 comdat align 2 {
entry:
  %n.addr.i = alloca i64, align 8
  %retval = alloca ptr, align 8
  %this.addr = alloca ptr, align 8
  %size.addr = alloca i64, align 8
  %align.addr = alloca i64, align 8
  %align_as = alloca %"struct.google::protobuf::internal::ArenaAlign", align 8
  store ptr %this, ptr %this.addr, align 8
  store i64 %size, ptr %size.addr, align 8
  store i64 %align, ptr %align.addr, align 8
  %this1 = load ptr, ptr %this.addr, align 8
  %0 = load i64, ptr %align.addr, align 8
  %cmp = icmp ule i64 %0, 8
  br i1 %cmp, label %if.then, label %if.else

if.then:                                          ; preds = %entry
  %1 = load i64, ptr %size.addr, align 8
  store i64 %1, ptr %n.addr.i, align 8
  %2 = load i64, ptr %n.addr.i, align 8
  %add.i = add i64 %2, 8
  %sub.i = sub i64 %add.i, 1
  %and.i = and i64 %sub.i, -8
  %call2 = call noundef ptr @_ZN6google8protobuf5Arena8AllocateEm(ptr noundef nonnull align 8 dereferenceable(144) %this1, i64 noundef %and.i)
  store ptr %call2, ptr %retval, align 8
  br label %return

if.else:                                          ; preds = %entry
  %3 = load i64, ptr %align.addr, align 8
  %call3 = call i64 @_ZN6google8protobuf8internal12ArenaAlignAsEm(i64 noundef %3)
  %coerce.dive = getelementptr inbounds %"struct.google::protobuf::internal::ArenaAlign", ptr %align_as, i32 0, i32 0
  store i64 %call3, ptr %coerce.dive, align 8
  %4 = load i64, ptr %size.addr, align 8
  %call4 = call noundef i64 @_ZNK6google8protobuf8internal10ArenaAlign6PaddedEm(ptr noundef nonnull align 8 dereferenceable(8) %align_as, i64 noundef %4)
  %call5 = call noundef ptr @_ZN6google8protobuf5Arena8AllocateEm(ptr noundef nonnull align 8 dereferenceable(144) %this1, i64 noundef %call4)
  %call6 = call noundef ptr @_ZNK6google8protobuf8internal10ArenaAlign4CeilIvEEPT_S5_(ptr noundef nonnull align 8 dereferenceable(8) %align_as, ptr noundef %call5)
  store ptr %call6, ptr %retval, align 8
  br label %return

return:                                           ; preds = %if.else, %if.then
  %5 = load ptr, ptr %retval, align 8
  ret ptr %5
}

; Function Attrs: mustprogress uwtable
define linkonce_odr hidden noundef ptr @_ZNK6google8protobuf11MessageLite8GetArenaEv(ptr noundef nonnull align 8 dereferenceable(16) %this) #5 comdat align 2 {
entry:
  %this.addr.i2 = alloca ptr, align 8
  %this.addr.i.i = alloca ptr, align 8
  %retval.i = alloca ptr, align 8
  %this.addr.i = alloca ptr, align 8
  %this.addr = alloca ptr, align 8
  store ptr %this, ptr %this.addr, align 8
  %this1 = load ptr, ptr %this.addr, align 8
  %_internal_metadata_ = getelementptr inbounds %"class.google::protobuf::MessageLite", ptr %this1, i32 0, i32 1
  store ptr %_internal_metadata_, ptr %this.addr.i, align 8
  %this1.i = load ptr, ptr %this.addr.i, align 8
  store ptr %this1.i, ptr %this.addr.i.i, align 8
  %this1.i.i = load ptr, ptr %this.addr.i.i, align 8
  store ptr %this1.i.i, ptr %this.addr.i2, align 8
  %this1.i3 = load ptr, ptr %this.addr.i2, align 8
  %0 = load i64, ptr %this1.i3, align 8
  %and.i = and i64 %0, 1
  %tobool.i = icmp ne i64 %and.i, 0
  br i1 %tobool.i, label %if.then.i, label %if.else.i

if.then.i:                                        ; preds = %entry
  %call2.i = call noundef ptr @_ZNK6google8protobuf8internal16InternalMetadata8PtrValueINS2_13ContainerBaseEEEPT_v(ptr noundef nonnull align 8 dereferenceable(8) %this1.i)
  %1 = load ptr, ptr %call2.i, align 8
  store ptr %1, ptr %retval.i, align 8
  br label %_ZNK6google8protobuf8internal16InternalMetadata5arenaEv.exit

if.else.i:                                        ; preds = %entry
  %call3.i = call noundef ptr @_ZNK6google8protobuf8internal16InternalMetadata8PtrValueINS0_5ArenaEEEPT_v(ptr noundef nonnull align 8 dereferenceable(8) %this1.i)
  store ptr %call3.i, ptr %retval.i, align 8
  br label %_ZNK6google8protobuf8internal16InternalMetadata5arenaEv.exit

_ZNK6google8protobuf8internal16InternalMetadata5arenaEv.exit: ; preds = %if.else.i, %if.then.i
  %2 = load ptr, ptr %retval.i, align 8
  ret ptr %2
}

; Function Attrs: mustprogress nounwind uwtable
define linkonce_odr hidden noundef i32 @_ZNK6google8protobuf8internal16ReflectionSchema11SizeofSplitEv(ptr noundef nonnull align 8 dereferenceable(72) %this) #4 comdat align 2 {
entry:
  %this.addr = alloca ptr, align 8
  store ptr %this, ptr %this.addr, align 8
  %this1 = load ptr, ptr %this.addr, align 8
  %sizeof_split_ = getelementptr inbounds %"struct.google::protobuf::internal::ReflectionSchema", ptr %this1, i32 0, i32 12
  %0 = load i32, ptr %sizeof_split_, align 8
  ret i32 %0
}

; Function Attrs: mustprogress uwtable
define linkonce_odr hidden noundef ptr @_ZNK6google8protobuf10Reflection13GetSplitFieldEPKNS0_7MessageE(ptr noundef nonnull align 8 dereferenceable(112) %this, ptr noundef %message) #5 comdat align 2 {
entry:
  %this.addr = alloca ptr, align 8
  %message.addr = alloca ptr, align 8
  store ptr %this, ptr %this.addr, align 8
  store ptr %message, ptr %message.addr, align 8
  %this1 = load ptr, ptr %this.addr, align 8
  %0 = load ptr, ptr %message.addr, align 8
  %schema_ = getelementptr inbounds %"class.google::protobuf::Reflection", ptr %this1, i32 0, i32 1
  %call = call noundef i32 @_ZNK6google8protobuf8internal16ReflectionSchema11SplitOffsetEv(ptr noundef nonnull align 8 dereferenceable(72) %schema_)
  %call2 = call noundef ptr @_ZN6google8protobuf8internal23GetConstPointerAtOffsetIPvEEPKT_PKvj(ptr noundef %0, i32 noundef %call)
  %1 = load ptr, ptr %call2, align 8
  ret ptr %1
}

; Function Attrs: mustprogress uwtable
define linkonce_odr hidden noundef ptr @_ZNK6google8protobuf10Reflection17MutableSplitFieldEPNS0_7MessageE(ptr noundef nonnull align 8 dereferenceable(112) %this, ptr noundef %message) #5 comdat align 2 {
entry:
  %this.addr = alloca ptr, align 8
  %message.addr = alloca ptr, align 8
  store ptr %this, ptr %this.addr, align 8
  store ptr %message, ptr %message.addr, align 8
  %this1 = load ptr, ptr %this.addr, align 8
  %0 = load ptr, ptr %message.addr, align 8
  %schema_ = getelementptr inbounds %"class.google::protobuf::Reflection", ptr %this1, i32 0, i32 1
  %call = call noundef i32 @_ZNK6google8protobuf8internal16ReflectionSchema11SplitOffsetEv(ptr noundef nonnull align 8 dereferenceable(72) %schema_)
  %call2 = call noundef ptr @_ZN6google8protobuf8internal18GetPointerAtOffsetIPvEEPT_S3_j(ptr noundef %0, i32 noundef %call)
  ret ptr %call2
}

; Function Attrs: mustprogress nounwind uwtable
define linkonce_odr hidden noundef nonnull align 1 dereferenceable(1) ptr @_ZN4absl12lts_2023080212log_internal10NullStream14InternalStreamEv(ptr noundef nonnull align 1 dereferenceable(1) %this) #4 comdat align 2 {
entry:
  %this.addr = alloca ptr, align 8
  store ptr %this, ptr %this.addr, align 8
  %this1 = load ptr, ptr %this.addr, align 8
  ret ptr %this1
}

; Function Attrs: mustprogress uwtable
define void @_ZNK6google8protobuf10Reflection27PrepareSplitMessageForWriteEPNS0_7MessageE(ptr noundef nonnull align 8 dereferenceable(112) %this, ptr noundef %message) #5 align 2 {
entry:
  %this.addr = alloca ptr, align 8
  %message.addr = alloca ptr, align 8
  %ref.tmp = alloca %"class.absl::lts_20230802::log_internal::NullStream", align 1
  %split = alloca ptr, align 8
  %default_split = alloca ptr, align 8
  %size = alloca i32, align 4
  %arena = alloca ptr, align 8
  store ptr %this, ptr %this.addr, align 8
  store ptr %message, ptr %message.addr, align 8
  %this1 = load ptr, ptr %this.addr, align 8
  br label %while.cond

while.cond:                                       ; preds = %while.body, %entry
  br i1 false, label %while.body, label %while.end

while.body:                                       ; preds = %while.cond
  %call = call noundef nonnull align 1 dereferenceable(1) ptr @_ZN4absl12lts_2023080212log_internal10NullStream14InternalStreamEv(ptr noundef nonnull align 1 dereferenceable(1) %ref.tmp)
  br label %while.cond, !llvm.loop !50

while.end:                                        ; preds = %while.cond
  %0 = load ptr, ptr %message.addr, align 8
  %call2 = call noundef ptr @_ZNK6google8protobuf10Reflection17MutableSplitFieldEPNS0_7MessageE(ptr noundef nonnull align 8 dereferenceable(112) %this1, ptr noundef %0)
  store ptr %call2, ptr %split, align 8
  %schema_ = getelementptr inbounds %"class.google::protobuf::Reflection", ptr %this1, i32 0, i32 1
  %default_instance_ = getelementptr inbounds %"struct.google::protobuf::internal::ReflectionSchema", ptr %schema_, i32 0, i32 0
  %1 = load ptr, ptr %default_instance_, align 8
  %call3 = call noundef ptr @_ZNK6google8protobuf10Reflection13GetSplitFieldEPKNS0_7MessageE(ptr noundef nonnull align 8 dereferenceable(112) %this1, ptr noundef %1)
  store ptr %call3, ptr %default_split, align 8
  %2 = load ptr, ptr %split, align 8
  %3 = load ptr, ptr %2, align 8
  %4 = load ptr, ptr %default_split, align 8
  %cmp = icmp eq ptr %3, %4
  br i1 %cmp, label %if.then, label %if.end

if.then:                                          ; preds = %while.end
  %schema_4 = getelementptr inbounds %"class.google::protobuf::Reflection", ptr %this1, i32 0, i32 1
  %call5 = call noundef i32 @_ZNK6google8protobuf8internal16ReflectionSchema11SizeofSplitEv(ptr noundef nonnull align 8 dereferenceable(72) %schema_4)
  store i32 %call5, ptr %size, align 4
  %5 = load ptr, ptr %message.addr, align 8
  %call6 = call noundef ptr @_ZNK6google8protobuf11MessageLite8GetArenaEv(ptr noundef nonnull align 8 dereferenceable(16) %5)
  store ptr %call6, ptr %arena, align 8
  %6 = load ptr, ptr %arena, align 8
  %cmp7 = icmp eq ptr %6, null
  br i1 %cmp7, label %cond.true, label %cond.false

cond.true:                                        ; preds = %if.then
  %7 = load i32, ptr %size, align 4
  %conv = zext i32 %7 to i64
  %call8 = call noalias noundef nonnull ptr @_Znwm(i64 noundef %conv) #25
  br label %cond.end

cond.false:                                       ; preds = %if.then
  %8 = load ptr, ptr %arena, align 8
  %9 = load i32, ptr %size, align 4
  %conv9 = zext i32 %9 to i64
  %call10 = call noundef ptr @_ZN6google8protobuf5Arena15AllocateAlignedEmm(ptr noundef nonnull align 8 dereferenceable(144) %8, i64 noundef %conv9, i64 noundef 8)
  br label %cond.end

cond.end:                                         ; preds = %cond.false, %cond.true
  %cond = phi ptr [ %call8, %cond.true ], [ %call10, %cond.false ]
  %10 = load ptr, ptr %split, align 8
  store ptr %cond, ptr %10, align 8
  %11 = load ptr, ptr %split, align 8
  %12 = load ptr, ptr %11, align 8
  %13 = load ptr, ptr %default_split, align 8
  %14 = load i32, ptr %size, align 4
  %conv11 = zext i32 %14 to i64
  call void @llvm.memcpy.p0.p0.i64(ptr align 1 %12, ptr align 1 %13, i64 %conv11, i1 false)
  br label %if.end

if.end:                                           ; preds = %cond.end, %while.end
  ret void
}