; Function Attrs: mustprogress uwtable
define void @_ZNK6google8protobuf10Reflection27PrepareSplitMessageForWriteEPNS0_7MessageE(ptr nocapture noundef nonnull readonly align 8 dereferenceable(112) %this, ptr nocapture noundef %message) local_unnamed_addr #4 align 2 {
entry:
  %split_offset_.i.i = getelementptr inbounds i8, ptr %this, i64 68
  %0 = load i32, ptr %split_offset_.i.i, align 4
  %idx.ext.i.i = zext i32 %0 to i64
  %add.ptr.i.i = getelementptr inbounds i8, ptr %message, i64 %idx.ext.i.i
  %schema_ = getelementptr inbounds i8, ptr %this, i64 8
  %1 = load ptr, ptr %schema_, align 8
  %add.ptr.i.i10 = getelementptr inbounds i8, ptr %1, i64 %idx.ext.i.i
  %2 = load ptr, ptr %add.ptr.i.i10, align 8
  %3 = load ptr, ptr %add.ptr.i.i, align 8
  %cmp = icmp eq ptr %3, %2
  br i1 %cmp, label %if.then, label %if.end

if.then:                                          ; preds = %entry
  %sizeof_split_.i = getelementptr inbounds i8, ptr %this, i64 72
  %4 = load i32, ptr %sizeof_split_.i, align 8
  %_internal_metadata_.i = getelementptr inbounds i8, ptr %message, i64 8
  %5 = load i64, ptr %_internal_metadata_.i, align 8
  %and.i.i = and i64 %5, 1
  %tobool.i.not.i = icmp eq i64 %and.i.i, 0
  br i1 %tobool.i.not.i, label %if.else.i.i, label %if.then.i.i

if.then.i.i:                                      ; preds = %if.then
  %and.i1.i = and i64 %5, -2
  %6 = inttoptr i64 %and.i1.i to ptr
  %7 = load ptr, ptr %6, align 8
  br label %_ZNK6google8protobuf11MessageLite8GetArenaEv.exit

if.else.i.i:                                      ; preds = %if.then
  %8 = inttoptr i64 %5 to ptr
  br label %_ZNK6google8protobuf11MessageLite8GetArenaEv.exit

_ZNK6google8protobuf11MessageLite8GetArenaEv.exit: ; preds = %if.then.i.i, %if.else.i.i
  %retval.i.0.i = phi ptr [ %7, %if.then.i.i ], [ %8, %if.else.i.i ]
  %cmp7 = icmp eq ptr %retval.i.0.i, null
  %conv = zext i32 %4 to i64
  br i1 %cmp7, label %cond.true, label %cond.false

cond.true:                                        ; preds = %_ZNK6google8protobuf11MessageLite8GetArenaEv.exit
  %call8 = tail call noalias noundef nonnull ptr @_Znwm(i64 noundef %conv) #30
  br label %cond.end

cond.false:                                       ; preds = %_ZNK6google8protobuf11MessageLite8GetArenaEv.exit
  %sub.i.i = add nuw nsw i64 %conv, 7
  %and.i.i11 = and i64 %sub.i.i, 8589934584
  %call2.i = tail call noundef ptr @_ZN6google8protobuf5Arena8AllocateEm(ptr noundef nonnull align 8 dereferenceable(144) %retval.i.0.i, i64 noundef %and.i.i11)
  br label %cond.end

cond.end:                                         ; preds = %cond.false, %cond.true
  %cond = phi ptr [ %call2.i, %cond.false ], [ %call8, %cond.true ]
  store ptr %cond, ptr %add.ptr.i.i, align 8
  tail call void @llvm.memcpy.p0.p0.i64(ptr align 1 %cond, ptr align 1 %2, i64 %conv, i1 false)
  br label %if.end

if.end:                                           ; preds = %cond.end, %entry
  ret void
}